; Function Attrs: nounwind uwtable
define ptr @l_Std_Internal_Rat_ceil(ptr noundef %0) local_unnamed_addr #0 {
  %2 = getelementptr inbounds nuw i8, ptr %0, i64 8
  %3 = getelementptr inbounds nuw i8, ptr %0, i64 16
  %4 = load ptr, ptr %3, align 8, !tbaa !4
  %5 = ptrtoint ptr %4 to i64
  %6 = and i64 %5, 1
  %.not = icmp eq i64 %6, 0
  br i1 %.not, label %7, label %lean_nat_eq.exit

7:                                                ; preds = %1
  %.val.i = load i32, ptr %4, align 4, !tbaa !10
  %8 = icmp sgt i32 %.val.i, 0
  br i1 %8, label %9, label %11, !prof !13

9:                                                ; preds = %7
  %10 = add nuw i32 %.val.i, 1
  store i32 %10, ptr %4, align 4, !tbaa !10
  br label %lean_nat_eq.exit.thread

11:                                               ; preds = %7
  %.not.i33 = icmp eq i32 %.val.i, 0
  br i1 %.not.i33, label %lean_nat_eq.exit.thread, label %12

12:                                               ; preds = %11
  tail call void @lean_inc_ref_cold(ptr noundef nonnull %4) #5
  br label %lean_nat_eq.exit.thread

lean_nat_eq.exit:                                 ; preds = %1
  %.not42 = icmp eq ptr %4, inttoptr (i64 3 to ptr)
  br i1 %.not42, label %lean_dec.exit19, label %14

lean_nat_eq.exit.thread:                          ; preds = %9, %11, %12
  %13 = tail call zeroext i1 @lean_nat_big_eq(ptr noundef nonnull %4, ptr noundef nonnull inttoptr (i64 3 to ptr)) #5
  br i1 %13, label %.thread, label %14

14:                                               ; preds = %lean_nat_eq.exit.thread, %lean_nat_eq.exit
  %15 = load ptr, ptr %2, align 8, !tbaa !4
  %16 = ptrtoint ptr %15 to i64
  %17 = and i64 %16, 1
  %.not45 = icmp eq i64 %17, 0
  br i1 %.not45, label %18, label %lean_inc.exit23

18:                                               ; preds = %14
  %.val.i34 = load i32, ptr %15, align 4, !tbaa !10
  %19 = icmp sgt i32 %.val.i34, 0
  br i1 %19, label %20, label %22, !prof !13

20:                                               ; preds = %18
  %21 = add nuw i32 %.val.i34, 1
  store i32 %21, ptr %15, align 4, !tbaa !10
  br label %lean_inc.exit23

22:                                               ; preds = %18
  %.not.i35 = icmp eq i32 %.val.i34, 0
  br i1 %.not.i35, label %lean_inc.exit23, label %23

23:                                               ; preds = %22
  tail call void @lean_inc_ref_cold(ptr noundef nonnull %15) #5
  br label %lean_inc.exit23

lean_inc.exit23:                                  ; preds = %23, %22, %20, %14
  %24 = ptrtoint ptr %0 to i64
  %25 = and i64 %24, 1
  %.not46 = icmp eq i64 %25, 0
  br i1 %.not46, label %26, label %lean_dec.exit22

26:                                               ; preds = %lean_inc.exit23
  %27 = load i32, ptr %0, align 4, !tbaa !10
  %28 = icmp sgt i32 %27, 1
  br i1 %28, label %29, label %31, !prof !13

29:                                               ; preds = %26
  %30 = add nsw i32 %27, -1
  store i32 %30, ptr %0, align 4, !tbaa !10
  br label %lean_dec.exit22

31:                                               ; preds = %26
  %.not.i = icmp eq i32 %27, 0
  br i1 %.not.i, label %lean_dec.exit22, label %32

32:                                               ; preds = %31
  tail call void @lean_dec_ref_cold(ptr noundef nonnull %0) #5
  br label %lean_dec.exit22

lean_dec.exit22:                                  ; preds = %32, %31, %29, %lean_inc.exit23
  %33 = icmp ult ptr %4, inttoptr (i64 4294967296 to ptr)
  %or.cond.i = or i1 %33, %.not
  br i1 %or.cond.i, label %lean_nat_to_int.exit, label %34

34:                                               ; preds = %lean_dec.exit22
  %35 = lshr i64 %5, 1
  %36 = tail call ptr @lean_big_size_t_to_int(i64 noundef %35) #5
  %.pre = ptrtoint ptr %36 to i64
  br label %lean_nat_to_int.exit

lean_nat_to_int.exit:                             ; preds = %lean_dec.exit22, %34
  %.pre-phi = phi i64 [ %5, %lean_dec.exit22 ], [ %.pre, %34 ]
  %.1.i = phi ptr [ %4, %lean_dec.exit22 ], [ %36, %34 ]
  %37 = tail call ptr @l_Int_Linear_cdiv(ptr noundef %15, ptr noundef %.1.i) #5
  %38 = and i64 %.pre-phi, 1
  %.not47 = icmp eq i64 %38, 0
  br i1 %.not47, label %39, label %lean_dec.exit21

39:                                               ; preds = %lean_nat_to_int.exit
  %40 = load i32, ptr %.1.i, align 4, !tbaa !10
  %41 = icmp sgt i32 %40, 1
  br i1 %41, label %42, label %44, !prof !13

42:                                               ; preds = %39
  %43 = add nsw i32 %40, -1
  store i32 %43, ptr %.1.i, align 4, !tbaa !10
  br label %lean_dec.exit21

44:                                               ; preds = %39
  %.not.i25 = icmp eq i32 %40, 0
  br i1 %.not.i25, label %lean_dec.exit21, label %45

45:                                               ; preds = %44
  tail call void @lean_dec_ref_cold(ptr noundef nonnull %.1.i) #5
  br label %lean_dec.exit21

lean_dec.exit21:                                  ; preds = %45, %44, %42, %lean_nat_to_int.exit
  br i1 %.not45, label %46, label %lean_dec.exit20

46:                                               ; preds = %lean_dec.exit21
  %47 = load i32, ptr %15, align 4, !tbaa !10
  %48 = icmp sgt i32 %47, 1
  br i1 %48, label %49, label %51, !prof !13

49:                                               ; preds = %46
  %50 = add nsw i32 %47, -1
  store i32 %50, ptr %15, align 4, !tbaa !10
  br label %lean_dec.exit20

51:                                               ; preds = %46
  %.not.i27 = icmp eq i32 %47, 0
  br i1 %.not.i27, label %lean_dec.exit20, label %52

52:                                               ; preds = %51
  tail call void @lean_dec_ref_cold(ptr noundef nonnull %15) #5
  br label %lean_dec.exit20

.thread:                                          ; preds = %lean_nat_eq.exit.thread
  %53 = load i32, ptr %4, align 4, !tbaa !10
  %54 = icmp sgt i32 %53, 1
  br i1 %54, label %55, label %57, !prof !13

55:                                               ; preds = %.thread
  %56 = add nsw i32 %53, -1
  store i32 %56, ptr %4, align 4, !tbaa !10
  br label %lean_dec.exit19

57:                                               ; preds = %.thread
  %.not.i29 = icmp eq i32 %53, 0
  br i1 %.not.i29, label %lean_dec.exit19, label %58

58:                                               ; preds = %57
  tail call void @lean_dec_ref_cold(ptr noundef nonnull %4) #5
  br label %lean_dec.exit19

lean_dec.exit19:                                  ; preds = %lean_nat_eq.exit, %58, %57, %55
  %59 = load ptr, ptr %2, align 8, !tbaa !4
  %60 = ptrtoint ptr %59 to i64
  %61 = and i64 %60, 1
  %.not43 = icmp eq i64 %61, 0
  br i1 %.not43, label %62, label %lean_inc.exit

62:                                               ; preds = %lean_dec.exit19
  %.val.i38 = load i32, ptr %59, align 4, !tbaa !10
  %63 = icmp sgt i32 %.val.i38, 0
  br i1 %63, label %64, label %66, !prof !13

64:                                               ; preds = %62
  %65 = add nuw i32 %.val.i38, 1
  store i32 %65, ptr %59, align 4, !tbaa !10
  br label %lean_inc.exit

66:                                               ; preds = %62
  %.not.i39 = icmp eq i32 %.val.i38, 0
  br i1 %.not.i39, label %lean_inc.exit, label %67

67:                                               ; preds = %66
  tail call void @lean_inc_ref_cold(ptr noundef nonnull %59) #5
  br label %lean_inc.exit

lean_inc.exit:                                    ; preds = %67, %66, %64, %lean_dec.exit19
  %68 = ptrtoint ptr %0 to i64
  %69 = and i64 %68, 1
  %.not44 = icmp eq i64 %69, 0
  br i1 %.not44, label %70, label %lean_dec.exit20

70:                                               ; preds = %lean_inc.exit
  %71 = load i32, ptr %0, align 4, !tbaa !10
  %72 = icmp sgt i32 %71, 1
  br i1 %72, label %73, label %75, !prof !13

73:                                               ; preds = %70
  %74 = add nsw i32 %71, -1
  store i32 %74, ptr %0, align 4, !tbaa !10
  br label %lean_dec.exit20

75:                                               ; preds = %70
  %.not.i31 = icmp eq i32 %71, 0
  br i1 %.not.i31, label %lean_dec.exit20, label %76

76:                                               ; preds = %75
  tail call void @lean_dec_ref_cold(ptr noundef nonnull %0) #5
  br label %lean_dec.exit20

lean_dec.exit20:                                  ; preds = %lean_inc.exit, %73, %75, %76, %lean_dec.exit21, %49, %51, %52
  %.0 = phi ptr [ %37, %52 ], [ %37, %51 ], [ %37, %49 ], [ %37, %lean_dec.exit21 ], [ %59, %76 ], [ %59, %75 ], [ %59, %73 ], [ %59, %lean_inc.exit ]
  ret ptr %.0
}